; Function Attrs: mustprogress uwtable
define void @_ZNK6casadi10ConstantDM8generateERNS_13CodeGeneratorERKSt6vectorIxSaIxEES7_(ptr noundef nonnull align 8 dereferenceable(104) %0, ptr noundef nonnull align 8 dereferenceable(3097) %1, ptr nocapture nonnull readnone align 8 %2, ptr nocapture noundef nonnull readonly align 8 dereferenceable(24) %3) unnamed_addr #3 align 2 personality ptr @__gxx_personality_v0 {
  %5 = alloca %"class.std::__cxx11::basic_string", align 8
  %6 = alloca %"class.std::__cxx11::basic_string", align 8
  %7 = alloca %"class.std::__cxx11::basic_string", align 8
  %8 = getelementptr inbounds i8, ptr %0, i64 64
  %9 = tail call noundef nonnull align 8 dereferenceable(24) ptr @_ZNK6casadi6MatrixIdE8nonzerosEv(ptr noundef nonnull align 8 dereferenceable(40) %8)
  call void @_ZN6casadi13CodeGenerator8constantB5cxx11ERKSt6vectorIdSaIdEE(ptr dead_on_unwind nonnull writable sret(%"class.std::__cxx11::basic_string") align 8 %5, ptr noundef nonnull align 8 dereferenceable(3097) %1, ptr noundef nonnull align 8 dereferenceable(24) %9)
  %10 = load ptr, ptr %0, align 8
  %11 = getelementptr inbounds i8, ptr %10, i64 352
  %12 = load ptr, ptr %11, align 8
  %13 = invoke noundef nonnull align 8 dereferenceable(8) ptr %12(ptr noundef nonnull align 8 dereferenceable(64) %0, i64 noundef 0)
          to label %.noexc unwind label %28

.noexc:                                           ; preds = %4
  %14 = invoke noundef i64 @_ZNK6casadi8Sparsity3nnzEv(ptr noundef nonnull align 8 dereferenceable(8) %13)
          to label %_ZNK6casadi6MXNode3nnzEx.exit unwind label %28

_ZNK6casadi6MXNode3nnzEx.exit:                    ; preds = %.noexc
  %15 = load ptr, ptr %3, align 8
  %16 = load i64, ptr %15, align 8
  %17 = load ptr, ptr %0, align 8
  %18 = getelementptr inbounds i8, ptr %17, i64 352
  %19 = load ptr, ptr %18, align 8
  %20 = invoke noundef nonnull align 8 dereferenceable(8) ptr %19(ptr noundef nonnull align 8 dereferenceable(64) %0, i64 noundef 0)
          to label %.noexc12 unwind label %28

.noexc12:                                         ; preds = %_ZNK6casadi6MXNode3nnzEx.exit
  %21 = invoke noundef i64 @_ZNK6casadi8Sparsity3nnzEv(ptr noundef nonnull align 8 dereferenceable(8) %20)
          to label %_ZNK6casadi6MXNode3nnzEx.exit14 unwind label %28

_ZNK6casadi6MXNode3nnzEx.exit14:                  ; preds = %.noexc12
  invoke void @_ZNK6casadi13CodeGenerator4workB5cxx11Exx(ptr dead_on_unwind nonnull writable sret(%"class.std::__cxx11::basic_string") align 8 %7, ptr noundef nonnull align 8 dereferenceable(3097) %1, i64 noundef %16, i64 noundef %21)
          to label %22 unwind label %28

22:                                               ; preds = %_ZNK6casadi6MXNode3nnzEx.exit14
  invoke void @_ZN6casadi13CodeGenerator4copyERKNSt7__cxx1112basic_stringIcSt11char_traitsIcESaIcEEEmS8_(ptr dead_on_unwind nonnull writable sret(%"class.std::__cxx11::basic_string") align 8 %6, ptr noundef nonnull align 8 dereferenceable(3097) %1, ptr noundef nonnull align 8 dereferenceable(32) %5, i64 noundef %14, ptr noundef nonnull align 8 dereferenceable(32) %7)
          to label %23 unwind label %30

23:                                               ; preds = %22
  %24 = invoke noundef nonnull align 8 dereferenceable(3097) ptr @_ZN6casadi13CodeGeneratorlsERKNSt7__cxx1112basic_stringIcSt11char_traitsIcESaIcEEE(ptr noundef nonnull align 8 dereferenceable(3097) %1, ptr noundef nonnull align 8 dereferenceable(32) %6)
          to label %25 unwind label %32

25:                                               ; preds = %23
  %26 = invoke noundef nonnull align 8 dereferenceable(3097) ptr @_ZN6casadi13CodeGeneratorlsIcEERS0_T_(ptr noundef nonnull align 8 dereferenceable(3097) %24, i8 noundef signext 10)
          to label %27 unwind label %32

27:                                               ; preds = %25
  call void @_ZNSt7__cxx1112basic_stringIcSt11char_traitsIcESaIcEED1Ev(ptr noundef nonnull align 8 dereferenceable(32) %6) #25
  call void @_ZNSt7__cxx1112basic_stringIcSt11char_traitsIcESaIcEED1Ev(ptr noundef nonnull align 8 dereferenceable(32) %7) #25
  call void @_ZNSt7__cxx1112basic_stringIcSt11char_traitsIcESaIcEED1Ev(ptr noundef nonnull align 8 dereferenceable(32) %5) #25
  ret void

28:                                               ; preds = %.noexc12, %_ZNK6casadi6MXNode3nnzEx.exit, %.noexc, %4, %_ZNK6casadi6MXNode3nnzEx.exit14
  %29 = landingpad { ptr, i32 }
          cleanup
  br label %35

30:                                               ; preds = %22
  %31 = landingpad { ptr, i32 }
          cleanup
  br label %34

32:                                               ; preds = %25, %23
  %33 = landingpad { ptr, i32 }
          cleanup
  call void @_ZNSt7__cxx1112basic_stringIcSt11char_traitsIcESaIcEED1Ev(ptr noundef nonnull align 8 dereferenceable(32) %6) #25
  br label %34

34:                                               ; preds = %32, %30
  %.pn = phi { ptr, i32 } [ %33, %32 ], [ %31, %30 ]
  call void @_ZNSt7__cxx1112basic_stringIcSt11char_traitsIcESaIcEED1Ev(ptr noundef nonnull align 8 dereferenceable(32) %7) #25
  br label %35

35:                                               ; preds = %34, %28
  %.pn.pn = phi { ptr, i32 } [ %.pn, %34 ], [ %29, %28 ]
  call void @_ZNSt7__cxx1112basic_stringIcSt11char_traitsIcESaIcEED1Ev(ptr noundef nonnull align 8 dereferenceable(32) %5) #25
  resume { ptr, i32 } %.pn.pn
}